target datalayout = "e-m:e-p270:32:32-p271:32:32-p272:64:64-i64:64-i128:128-f80:128-n8:16:32:64-S128"
target triple = "x86_64-pc-linux-gnu"

%struct.cinfo_tag = type { i32, i32, i32, i32, i32, i32, i32, i32, i32, i32, i32, i32, i32, i32, i32, i32, i32, i64, i64, i64 }
%struct.cube = type { i8, i8, i16, i16, i16, ptr, ptr, ptr, ptr }

@BitCount = global [65536 x i8] zeroinitializer, align 16
@DiffVarCounter = internal global i32 0, align 4
@g_CoverInfo = external global %struct.cinfo_tag, align 8
@Temp1 = internal global i32 0, align 4
@Temp2 = internal global i32 0, align 4

; Function Attrs: inlinehint nounwind uwtable
define internal i32 @BIT_COUNT(i32 noundef %0) #3 {
  %2 = alloca i32, align 4
  store i32 %0, ptr %2, align 4, !tbaa !3
  %3 = load i32, ptr %2, align 4, !tbaa !3
  %4 = and i32 %3, 65535
  %5 = sext i32 %4 to i64
  %6 = getelementptr inbounds [0 x i8], ptr @BitCount, i64 0, i64 %5
  %7 = load i8, ptr %6, align 1, !tbaa !7
  %8 = zext i8 %7 to i32
  %9 = load i32, ptr %2, align 4, !tbaa !3
  %10 = ashr i32 %9, 16
  %11 = sext i32 %10 to i64
  %12 = getelementptr inbounds [0 x i8], ptr @BitCount, i64 0, i64 %11
  %13 = load i8, ptr %12, align 1, !tbaa !7
  %14 = zext i8 %13 to i32
  %15 = add nsw i32 %8, %14
  ret i32 %15
}

; Function Attrs: nounwind uwtable
define i32 @GetDistance(ptr noundef %0, ptr noundef %1) #0 {
  %3 = alloca i32, align 4
  %4 = alloca ptr, align 8
  %5 = alloca ptr, align 8
  %6 = alloca i32, align 4
  %7 = alloca i32, align 4
  store ptr %0, ptr %4, align 8, !tbaa !11
  store ptr %1, ptr %5, align 8, !tbaa !11
  call void @llvm.lifetime.start.p0(i64 4, ptr %6) #4
  store i32 0, ptr @DiffVarCounter, align 4, !tbaa !3
  store i32 0, ptr %6, align 4, !tbaa !3
  br label %8

8:                                                ; preds = %41, %2
  %9 = load i32, ptr %6, align 4, !tbaa !3
  %10 = load i32, ptr getelementptr inbounds nuw (%struct.cinfo_tag, ptr @g_CoverInfo, i32 0, i32 2), align 8, !tbaa !18
  %11 = icmp slt i32 %9, %10
  br i1 %11, label %12, label %44

12:                                               ; preds = %8
  %13 = load ptr, ptr %4, align 8, !tbaa !11
  %14 = getelementptr inbounds nuw %struct.cube, ptr %13, i32 0, i32 5
  %15 = load ptr, ptr %14, align 8, !tbaa !14
  %16 = load i32, ptr %6, align 4, !tbaa !3
  %17 = sext i32 %16 to i64
  %18 = getelementptr inbounds i32, ptr %15, i64 %17
  %19 = load i32, ptr %18, align 4, !tbaa !3
  %20 = load ptr, ptr %5, align 8, !tbaa !11
  %21 = getelementptr inbounds nuw %struct.cube, ptr %20, i32 0, i32 5
  %22 = load ptr, ptr %21, align 8, !tbaa !14
  %23 = load i32, ptr %6, align 4, !tbaa !3
  %24 = sext i32 %23 to i64
  %25 = getelementptr inbounds i32, ptr %22, i64 %24
  %26 = load i32, ptr %25, align 4, !tbaa !3
  %27 = xor i32 %19, %26
  store i32 %27, ptr @Temp1, align 4, !tbaa !3
  %28 = load i32, ptr @Temp1, align 4, !tbaa !3
  %29 = load i32, ptr @Temp1, align 4, !tbaa !3
  %30 = lshr i32 %29, 1
  %31 = or i32 %28, %30
  %32 = and i32 %31, 1431655765
  store i32 %32, ptr @Temp2, align 4, !tbaa !3
  %33 = load i32, ptr @Temp2, align 4, !tbaa !3
  %34 = call i32 @BIT_COUNT(i32 noundef %33)
  %35 = load i32, ptr @DiffVarCounter, align 4, !tbaa !3
  %36 = add nsw i32 %35, %34
  store i32 %36, ptr @DiffVarCounter, align 4, !tbaa !3
  %37 = load i32, ptr @DiffVarCounter, align 4, !tbaa !3
  %38 = icmp sgt i32 %37, 4
  br i1 %38, label %39, label %40

39:                                               ; preds = %12
  store i32 5, ptr %3, align 4
  store i32 1, ptr %7, align 4
  br label %75

40:                                               ; preds = %12
  br label %41

41:                                               ; preds = %40
  %42 = load i32, ptr %6, align 4, !tbaa !3
  %43 = add nsw i32 %42, 1
  store i32 %43, ptr %6, align 4, !tbaa !3
  br label %8, !llvm.loop !21

44:                                               ; preds = %8
  store i32 0, ptr %6, align 4, !tbaa !3
  br label %45

45:                                               ; preds = %70, %44
  %46 = load i32, ptr %6, align 4, !tbaa !3
  %47 = load i32, ptr getelementptr inbounds nuw (%struct.cinfo_tag, ptr @g_CoverInfo, i32 0, i32 3), align 4, !tbaa !22
  %48 = icmp slt i32 %46, %47
  br i1 %48, label %49, label %73

49:                                               ; preds = %45
  %50 = load ptr, ptr %4, align 8, !tbaa !11
  %51 = getelementptr inbounds nuw %struct.cube, ptr %50, i32 0, i32 6
  %52 = load ptr, ptr %51, align 8, !tbaa !23
  %53 = load i32, ptr %6, align 4, !tbaa !3
  %54 = sext i32 %53 to i64
  %55 = getelementptr inbounds i32, ptr %52, i64 %54
  %56 = load i32, ptr %55, align 4, !tbaa !3
  %57 = load ptr, ptr %5, align 8, !tbaa !11
  %58 = getelementptr inbounds nuw %struct.cube, ptr %57, i32 0, i32 6
  %59 = load ptr, ptr %58, align 8, !tbaa !23
  %60 = load i32, ptr %6, align 4, !tbaa !3
  %61 = sext i32 %60 to i64
  %62 = getelementptr inbounds i32, ptr %59, i64 %61
  %63 = load i32, ptr %62, align 4, !tbaa !3
  %64 = xor i32 %56, %63
  %65 = icmp ne i32 %64, 0
  br i1 %65, label %66, label %69

66:                                               ; preds = %49
  %67 = load i32, ptr @DiffVarCounter, align 4, !tbaa !3
  %68 = add nsw i32 %67, 1
  store i32 %68, ptr @DiffVarCounter, align 4, !tbaa !3
  br label %73

69:                                               ; preds = %49
  br label %70

70:                                               ; preds = %69
  %71 = load i32, ptr %6, align 4, !tbaa !3
  %72 = add nsw i32 %71, 1
  store i32 %72, ptr %6, align 4, !tbaa !3
  br label %45, !llvm.loop !24

73:                                               ; preds = %66, %45
  %74 = load i32, ptr @DiffVarCounter, align 4, !tbaa !3
  store i32 %74, ptr %3, align 4
  store i32 1, ptr %7, align 4
  br label %75

75:                                               ; preds = %73, %39
  call void @llvm.lifetime.end.p0(i64 4, ptr %6) #4
  %76 = load i32, ptr %3, align 4
  ret i32 %76
}