; Function Attrs: nofree norecurse nosync nounwind memory(readwrite, argmem: read, inaccessiblemem: none) uwtable
define i32 @GetDistance(ptr noundef readonly captures(none) %0, ptr noundef readonly captures(none) %1) local_unnamed_addr #4 {
  %3 = load i32, ptr getelementptr inbounds nuw (i8, ptr @g_CoverInfo, i64 8), align 8, !tbaa !17
  %4 = icmp sgt i32 %3, 0
  br i1 %4, label %.lr.ph, label %.preheader

.lr.ph:                                           ; preds = %2
  %5 = getelementptr inbounds nuw i8, ptr %0, i64 8
  %6 = load ptr, ptr %5, align 8, !tbaa !11
  %7 = getelementptr inbounds nuw i8, ptr %1, i64 8
  %8 = load ptr, ptr %7, align 8, !tbaa !11
  %wide.trip.count = zext nneg i32 %3 to i64
  br label %17

9:                                                ; preds = %17
  %indvars.iv.next = add nuw nsw i64 %indvars.iv, 1
  %exitcond.not = icmp eq i64 %indvars.iv.next, %wide.trip.count
  br i1 %exitcond.not, label %.preheader, label %17, !llvm.loop !20

.preheader:                                       ; preds = %9, %2
  %10 = phi i32 [ 0, %2 ], [ %38, %9 ]
  %11 = load i32, ptr getelementptr inbounds nuw (i8, ptr @g_CoverInfo, i64 12), align 4, !tbaa !21
  %12 = icmp sgt i32 %11, 0
  br i1 %12, label %.lr.ph19, label %.loopexit

.lr.ph19:                                         ; preds = %.preheader
  %13 = getelementptr inbounds nuw i8, ptr %0, i64 16
  %14 = load ptr, ptr %13, align 8, !tbaa !22
  %15 = getelementptr inbounds nuw i8, ptr %1, i64 16
  %16 = load ptr, ptr %15, align 8, !tbaa !22
  %wide.trip.count27 = zext nneg i32 %11 to i64
  br label %41

17:                                               ; preds = %.lr.ph, %9
  %indvars.iv = phi i64 [ 0, %.lr.ph ], [ %indvars.iv.next, %9 ]
  %18 = phi i32 [ 0, %.lr.ph ], [ %38, %9 ]
  %19 = getelementptr inbounds nuw i32, ptr %6, i64 %indvars.iv
  %20 = load i32, ptr %19, align 4, !tbaa !8
  %21 = getelementptr inbounds nuw i32, ptr %8, i64 %indvars.iv
  %22 = load i32, ptr %21, align 4, !tbaa !8
  %23 = xor i32 %22, %20
  %24 = lshr i32 %23, 1
  %25 = or i32 %24, %23
  %26 = and i32 %25, 21845
  %27 = zext nneg i32 %26 to i64
  %28 = getelementptr inbounds nuw [0 x i8], ptr @BitCount, i64 0, i64 %27
  %29 = load i8, ptr %28, align 1, !tbaa !3
  %30 = zext i8 %29 to i32
  %31 = lshr i32 %25, 16
  %32 = and i32 %31, 21845
  %33 = zext nneg i32 %32 to i64
  %34 = getelementptr inbounds nuw [0 x i8], ptr @BitCount, i64 0, i64 %33
  %35 = load i8, ptr %34, align 1, !tbaa !3
  %36 = zext i8 %35 to i32
  %37 = add nuw nsw i32 %36, %30
  %38 = add nuw nsw i32 %37, %18
  %39 = icmp samesign ugt i32 %38, 4
  br i1 %39, label %.loopexit, label %9

40:                                               ; preds = %41
  %indvars.iv.next25 = add nuw nsw i64 %indvars.iv24, 1
  %exitcond28.not = icmp eq i64 %indvars.iv.next25, %wide.trip.count27
  br i1 %exitcond28.not, label %.loopexit, label %41, !llvm.loop !23

41:                                               ; preds = %.lr.ph19, %40
  %indvars.iv24 = phi i64 [ 0, %.lr.ph19 ], [ %indvars.iv.next25, %40 ]
  %42 = getelementptr inbounds nuw i32, ptr %14, i64 %indvars.iv24
  %43 = load i32, ptr %42, align 4, !tbaa !8
  %44 = getelementptr inbounds nuw i32, ptr %16, i64 %indvars.iv24
  %45 = load i32, ptr %44, align 4, !tbaa !8
  %.not = icmp eq i32 %43, %45
  br i1 %.not, label %40, label %46

46:                                               ; preds = %41
  %47 = add nuw nsw i32 %10, 1
  br label %.loopexit

.loopexit:                                        ; preds = %17, %40, %46, %.preheader
  %.012 = phi i32 [ %10, %.preheader ], [ %47, %46 ], [ %10, %40 ], [ 5, %17 ]
  ret i32 %.012
}